target datalayout = "e-m:e-p270:32:32-p271:32:32-p272:64:64-i64:64-i128:128-f80:128-n8:16:32:64-S128"
target triple = "x86_64-pc-linux-gnu"

%struct.rb_parser_string = type { i32, ptr, i64, ptr }

@.str.561 = private unnamed_addr constant [44 x i8] c"negative string size (or size too big): %ld\00", align 1

; Function Attrs: alwaysinline nounwind
define internal ptr @memcpy.inline(ptr noalias nonnull %0, ptr noalias nonnull %1, i64 %2) #14 {
  %4 = alloca ptr, align 8
  %5 = alloca ptr, align 8
  %6 = alloca i64, align 8
  store ptr %0, ptr %4, align 8, !tbaa !609
  store ptr %1, ptr %5, align 8, !tbaa !609
  store i64 %2, ptr %6, align 8, !tbaa !16
  %7 = load ptr, ptr %4, align 8, !tbaa !609
  %8 = load ptr, ptr %5, align 8, !tbaa !609
  %9 = load i64, ptr %6, align 8, !tbaa !16
  %10 = load ptr, ptr %4, align 8, !tbaa !609
  %11 = call i64 @llvm.objectsize.i64.p0(ptr %10, i1 false, i1 true, i1 false)
  %12 = call ptr @__memcpy_chk(ptr noundef %7, ptr noundef %8, i64 noundef %9, i64 noundef %11) #25
  ret ptr %12
}

; Function Attrs: inlinehint nounwind sspstrong memory(argmem: readwrite, inaccessiblemem: readwrite) uwtable
define internal nonnull ptr @ruby_nonempty_memcpy(ptr noundef nonnull %0, ptr noundef %1, i64 noundef %2) #13 {
  %4 = alloca ptr, align 8
  %5 = alloca ptr, align 8
  %6 = alloca ptr, align 8
  %7 = alloca i64, align 8
  store ptr %0, ptr %5, align 8, !tbaa !609
  store ptr %1, ptr %6, align 8, !tbaa !609
  store i64 %2, ptr %7, align 8, !tbaa !16
  %8 = load i64, ptr %7, align 8, !tbaa !16
  %9 = icmp ne i64 %8, 0
  br i1 %9, label %10, label %15

10:                                               ; preds = %3
  %11 = load ptr, ptr %5, align 8, !tbaa !609
  %12 = load ptr, ptr %6, align 8, !tbaa !609
  %13 = load i64, ptr %7, align 8, !tbaa !16
  %14 = call ptr @memcpy.inline(ptr noundef %11, ptr noundef %12, i64 noundef %13) #25
  store ptr %14, ptr %4, align 8
  br label %17

15:                                               ; preds = %3
  %16 = load ptr, ptr %5, align 8, !tbaa !609
  store ptr %16, ptr %4, align 8
  br label %17

17:                                               ; preds = %15, %10
  %18 = load ptr, ptr %4, align 8
  ret ptr %18
}

; Function Attrs: nounwind sspstrong uwtable
define internal void @PARSER_ENC_CODERANGE_SET(ptr noundef %0, i32 noundef %1) #0 {
  %3 = alloca ptr, align 8
  %4 = alloca i32, align 4
  store ptr %0, ptr %3, align 8, !tbaa !614
  store i32 %1, ptr %4, align 4, !tbaa !14
  %5 = load i32, ptr %4, align 4, !tbaa !14
  %6 = load ptr, ptr %3, align 8, !tbaa !614
  %7 = getelementptr inbounds nuw %struct.rb_parser_string, ptr %6, i32 0, i32 0
  store i32 %5, ptr %7, align 8, !tbaa !620
  ret void
}

; Function Attrs: nounwind sspstrong uwtable
define internal void @rb_parser_string_set_encoding(ptr noundef %0, ptr noundef %1) #0 {
  %3 = alloca ptr, align 8
  %4 = alloca ptr, align 8
  store ptr %0, ptr %3, align 8, !tbaa !614
  store ptr %1, ptr %4, align 8, !tbaa !619
  %5 = load ptr, ptr %4, align 8, !tbaa !619
  %6 = load ptr, ptr %3, align 8, !tbaa !614
  %7 = getelementptr inbounds nuw %struct.rb_parser_string, ptr %6, i32 0, i32 1
  store ptr %5, ptr %7, align 8, !tbaa !622
  ret void
}

; Function Attrs: nounwind sspstrong uwtable
define internal ptr @rb_parser_string_new(ptr noundef %0, ptr noundef %1, i64 noundef %2) #0 {
  %4 = alloca ptr, align 8
  %5 = alloca ptr, align 8
  %6 = alloca i64, align 8
  %7 = alloca ptr, align 8
  store ptr %0, ptr %4, align 8, !tbaa !6
  store ptr %1, ptr %5, align 8, !tbaa !24
  store i64 %2, ptr %6, align 8, !tbaa !16
  call void @llvm.lifetime.start.p0(i64 8, ptr %7) #25
  %8 = load i64, ptr %6, align 8, !tbaa !16
  %9 = icmp slt i64 %8, 0
  br i1 %9, label %10, label %12

10:                                               ; preds = %3
  %11 = load i64, ptr %6, align 8, !tbaa !16
  call void (ptr, ...) @rb_bug(ptr noundef @.str.561, i64 noundef %11) #30
  unreachable

12:                                               ; preds = %3
  %13 = call noalias nonnull ptr @ruby_xcalloc(i64 noundef 1, i64 noundef 32) #31
  store ptr %13, ptr %7, align 8, !tbaa !614
  %14 = load i64, ptr %6, align 8, !tbaa !16
  %15 = add nsw i64 %14, 1
  %16 = call noalias nonnull ptr @ruby_xcalloc(i64 noundef %15, i64 noundef 1) #31
  %17 = load ptr, ptr %7, align 8, !tbaa !614
  %18 = getelementptr inbounds nuw %struct.rb_parser_string, ptr %17, i32 0, i32 3
  store ptr %16, ptr %18, align 8, !tbaa !669
  %19 = load ptr, ptr %5, align 8, !tbaa !24
  %20 = icmp ne ptr %19, null
  br i1 %20, label %21, label %28

21:                                               ; preds = %12
  %22 = load ptr, ptr %7, align 8, !tbaa !614
  %23 = getelementptr inbounds nuw %struct.rb_parser_string, ptr %22, i32 0, i32 3
  %24 = load ptr, ptr %23, align 8, !tbaa !669
  %25 = load ptr, ptr %5, align 8, !tbaa !24
  %26 = load i64, ptr %6, align 8, !tbaa !16
  %27 = call nonnull ptr @ruby_nonempty_memcpy(ptr noundef %24, ptr noundef %25, i64 noundef %26) #32
  br label %28

28:                                               ; preds = %21, %12
  br label %29

29:                                               ; preds = %28
  %30 = load i64, ptr %6, align 8, !tbaa !16
  %31 = load ptr, ptr %7, align 8, !tbaa !614
  %32 = getelementptr inbounds nuw %struct.rb_parser_string, ptr %31, i32 0, i32 2
  store i64 %30, ptr %32, align 8, !tbaa !668
  br label %33

33:                                               ; preds = %29
  br label %34

34:                                               ; preds = %33
  %35 = load ptr, ptr %7, align 8, !tbaa !614
  %36 = getelementptr inbounds nuw %struct.rb_parser_string, ptr %35, i32 0, i32 3
  %37 = load ptr, ptr %36, align 8, !tbaa !669
  %38 = load ptr, ptr %7, align 8, !tbaa !614
  %39 = getelementptr inbounds nuw %struct.rb_parser_string, ptr %38, i32 0, i32 2
  %40 = load i64, ptr %39, align 8, !tbaa !668
  %41 = getelementptr inbounds i8, ptr %37, i64 %40
  store i8 0, ptr %41, align 1, !tbaa !12
  %42 = load ptr, ptr %7, align 8, !tbaa !614
  call void @llvm.lifetime.end.p0(i64 8, ptr %7) #25
  ret ptr %42
}

; Function Attrs: nounwind sspstrong uwtable
define internal void @PARSER_ENCODING_CODERANGE_SET(ptr noundef %0, ptr noundef %1, i32 noundef %2) #0 {
  %4 = alloca ptr, align 8
  %5 = alloca ptr, align 8
  %6 = alloca i32, align 4
  store ptr %0, ptr %4, align 8, !tbaa !614
  store ptr %1, ptr %5, align 8, !tbaa !619
  store i32 %2, ptr %6, align 4, !tbaa !14
  %7 = load ptr, ptr %4, align 8, !tbaa !614
  %8 = load ptr, ptr %5, align 8, !tbaa !619
  call void @rb_parser_string_set_encoding(ptr noundef %7, ptr noundef %8)
  %9 = load ptr, ptr %4, align 8, !tbaa !614
  %10 = load i32, ptr %6, align 4, !tbaa !14
  call void @PARSER_ENC_CODERANGE_SET(ptr noundef %9, i32 noundef %10)
  ret void
}

; Function Attrs: nounwind sspstrong uwtable
define internal zeroext i1 @rb_parser_is_ascii_string(ptr noundef %0, ptr noundef %1) #0 {
  %3 = alloca ptr, align 8
  %4 = alloca ptr, align 8
  store ptr %0, ptr %3, align 8, !tbaa !6
  store ptr %1, ptr %4, align 8, !tbaa !614
  %5 = load ptr, ptr %3, align 8, !tbaa !6
  %6 = load ptr, ptr %4, align 8, !tbaa !614
  %7 = call i32 @rb_parser_enc_str_coderange(ptr noundef %5, ptr noundef %6)
  %8 = icmp eq i32 %7, 1
  ret i1 %8
}

; Function Attrs: nounwind sspstrong uwtable
define internal ptr @rb_parser_encoding_string_new(ptr noundef %0, ptr noundef %1, i64 noundef %2, ptr noundef %3) #0 {
  %5 = alloca ptr, align 8
  %6 = alloca ptr, align 8
  %7 = alloca i64, align 8
  %8 = alloca ptr, align 8
  %9 = alloca ptr, align 8
  store ptr %0, ptr %5, align 8, !tbaa !6
  store ptr %1, ptr %6, align 8, !tbaa !24
  store i64 %2, ptr %7, align 8, !tbaa !16
  store ptr %3, ptr %8, align 8, !tbaa !619
  call void @llvm.lifetime.start.p0(i64 8, ptr %9) #25
  %10 = load ptr, ptr %5, align 8, !tbaa !6
  %11 = load ptr, ptr %6, align 8, !tbaa !24
  %12 = load i64, ptr %7, align 8, !tbaa !16
  %13 = call ptr @rb_parser_string_new(ptr noundef %10, ptr noundef %11, i64 noundef %12)
  store ptr %13, ptr %9, align 8, !tbaa !614
  %14 = load ptr, ptr %9, align 8, !tbaa !614
  %15 = getelementptr inbounds nuw %struct.rb_parser_string, ptr %14, i32 0, i32 0
  store i32 0, ptr %15, align 8, !tbaa !620
  %16 = load ptr, ptr %8, align 8, !tbaa !619
  %17 = load ptr, ptr %9, align 8, !tbaa !614
  %18 = getelementptr inbounds nuw %struct.rb_parser_string, ptr %17, i32 0, i32 1
  store ptr %16, ptr %18, align 8, !tbaa !622
  %19 = load ptr, ptr %9, align 8, !tbaa !614
  call void @llvm.lifetime.end.p0(i64 8, ptr %9) #25
  ret ptr %19
}

; Function Attrs: nounwind sspstrong uwtable
define internal ptr @parser_str_new(ptr noundef %0, ptr noundef %1, i64 noundef %2, ptr noundef %3, i32 noundef %4, ptr noundef %5) #0 {
  %7 = alloca ptr, align 8
  %8 = alloca ptr, align 8
  %9 = alloca i64, align 8
  %10 = alloca ptr, align 8
  %11 = alloca i32, align 4
  %12 = alloca ptr, align 8
  %13 = alloca ptr, align 8
  store ptr %0, ptr %7, align 8, !tbaa !6
  store ptr %1, ptr %8, align 8, !tbaa !24
  store i64 %2, ptr %9, align 8, !tbaa !16
  store ptr %3, ptr %10, align 8, !tbaa !619
  store i32 %4, ptr %11, align 4, !tbaa !14
  store ptr %5, ptr %12, align 8, !tbaa !619
  call void @llvm.lifetime.start.p0(i64 8, ptr %13) #25
  %14 = load ptr, ptr %7, align 8, !tbaa !6
  %15 = load ptr, ptr %8, align 8, !tbaa !24
  %16 = load i64, ptr %9, align 8, !tbaa !16
  %17 = load ptr, ptr %10, align 8, !tbaa !619
  %18 = call ptr @rb_parser_encoding_string_new(ptr noundef %14, ptr noundef %15, i64 noundef %16, ptr noundef %17)
  store ptr %18, ptr %13, align 8, !tbaa !614
  %19 = load i32, ptr %11, align 4, !tbaa !14
  %20 = and i32 %19, 4
  %21 = icmp ne i32 %20, 0
  br i1 %21, label %41, label %22

22:                                               ; preds = %6
  %23 = load ptr, ptr %7, align 8, !tbaa !6
  %24 = load ptr, ptr %13, align 8, !tbaa !614
  %25 = call zeroext i1 @rb_parser_is_ascii_string(ptr noundef %23, ptr noundef %24)
  br i1 %25, label %26, label %27

26:                                               ; preds = %22
  br label %40

27:                                               ; preds = %22
  %28 = load ptr, ptr %12, align 8, !tbaa !619
  %29 = call nonnull ptr @rb_usascii_encoding()
  %30 = icmp eq ptr %28, %29
  br i1 %30, label %31, label %39

31:                                               ; preds = %27
  %32 = load ptr, ptr %10, align 8, !tbaa !619
  %33 = call nonnull ptr @rb_utf8_encoding()
  %34 = icmp ne ptr %32, %33
  br i1 %34, label %35, label %39

35:                                               ; preds = %31
  %36 = call nonnull ptr @rb_ascii8bit_encoding()
  store ptr %36, ptr %10, align 8, !tbaa !619
  %37 = load ptr, ptr %13, align 8, !tbaa !614
  %38 = load ptr, ptr %10, align 8, !tbaa !619
  call void @PARSER_ENCODING_CODERANGE_SET(ptr noundef %37, ptr noundef %38, i32 noundef 2)
  br label %39

39:                                               ; preds = %35, %31, %27
  br label %40

40:                                               ; preds = %39, %26
  br label %41

41:                                               ; preds = %40, %6
  %42 = load ptr, ptr %13, align 8, !tbaa !614
  call void @llvm.lifetime.end.p0(i64 8, ptr %13) #25
  ret ptr %42
}