; Function Attrs: nounwind sspstrong uwtable
define internal fastcc noalias noundef nonnull ptr @parser_str_new(ptr noundef readonly captures(address_is_null) %0, i64 noundef range(i64 -2147483648, 2147483648) %1, ptr noundef %2, i32 noundef %3, ptr noundef readnone captures(address) %4) unnamed_addr #0 {
  %6 = icmp slt i64 %1, 0
  br i1 %6, label %7, label %8

7:                                                ; preds = %5
  tail call void (ptr, ...) @rb_bug(ptr noundef nonnull @.str.561, i64 noundef %1) #36
  unreachable

8:                                                ; preds = %5
  %9 = tail call noalias nonnull dereferenceable(32) ptr @ruby_xcalloc(i64 noundef 1, i64 noundef 32) #35
  %10 = add nuw nsw i64 %1, 1
  %11 = tail call noalias nonnull ptr @ruby_xcalloc(i64 noundef %10, i64 noundef 1) #35
  %12 = getelementptr inbounds nuw i8, ptr %9, i64 24
  store ptr %11, ptr %12, align 8, !tbaa !443
  %.not.i.i = icmp eq ptr %0, null
  %.not.i.i.i = icmp eq i64 %1, 0
  %or.cond.i.i = or i1 %.not.i.i, %.not.i.i.i
  br i1 %or.cond.i.i, label %rb_parser_encoding_string_new.exit, label %13

13:                                               ; preds = %8
  tail call void @llvm.memcpy.p0.p0.i64(ptr noundef nonnull align 1 %11, ptr noundef nonnull readonly align 1 %0, i64 noundef range(i64 1, 0) %1, i1 noundef false) #31
  br label %rb_parser_encoding_string_new.exit

rb_parser_encoding_string_new.exit:               ; preds = %8, %13
  %14 = getelementptr inbounds nuw i8, ptr %9, i64 16
  store i64 %1, ptr %14, align 8, !tbaa !445
  %15 = getelementptr inbounds nuw i8, ptr %11, i64 %1
  store i8 0, ptr %15, align 1, !tbaa !6
  store i32 0, ptr %9, align 8, !tbaa !446
  %16 = getelementptr inbounds nuw i8, ptr %9, i64 8
  store ptr %2, ptr %16, align 8, !tbaa !447
  %17 = and i32 %3, 4
  %.not = icmp eq i32 %17, 0
  br i1 %.not, label %18, label %28

18:                                               ; preds = %rb_parser_encoding_string_new.exit
  %19 = tail call fastcc i32 @rb_parser_enc_str_coderange(ptr noundef nonnull %9)
  %20 = icmp eq i32 %19, 1
  br i1 %20, label %28, label %21

21:                                               ; preds = %18
  %22 = tail call nonnull ptr @rb_usascii_encoding() #31
  %23 = icmp eq ptr %4, %22
  br i1 %23, label %24, label %28

24:                                               ; preds = %21
  %25 = tail call nonnull ptr @rb_utf8_encoding() #31
  %.not11 = icmp eq ptr %2, %25
  br i1 %.not11, label %28, label %26

26:                                               ; preds = %24
  %27 = tail call nonnull ptr @rb_ascii8bit_encoding() #31
  store ptr %27, ptr %16, align 8, !tbaa !447
  store i32 2, ptr %9, align 8, !tbaa !446
  br label %28

28:                                               ; preds = %18, %26, %24, %21, %rb_parser_encoding_string_new.exit
  ret ptr %9
}